target datalayout = "e-m:e-p270:32:32-p271:32:32-p272:64:64-i64:64-i128:128-f80:128-n8:16:32:64-S128"
target triple = "x86_64-pc-linux-gnu"

%struct.__va_list_tag = type { i32, i32, ptr, ptr }

@ett_mswsp_uin32_array = internal global i32 0, align 4
@.str.1226 = private unnamed_addr constant [3 x i8] c"%u\00", align 1
@.str.1250 = private unnamed_addr constant [12 x i8] c" Count %u [\00", align 1
@.str.1251 = private unnamed_addr constant [4 x i8] c",%u\00", align 1
@.str.1252 = private unnamed_addr constant [2 x i8] c"]\00", align 1

; Function Attrs: null_pointer_is_valid sspstrong uwtable
define internal i32 @parse_CColumnSet(ptr noundef %0, i32 noundef %1, ptr noundef %2, ptr noundef %3, ...) #0 {
  %5 = alloca ptr, align 8
  %6 = alloca i32, align 4
  %7 = alloca ptr, align 8
  %8 = alloca ptr, align 8
  %9 = alloca i32, align 4
  %10 = alloca i32, align 4
  %11 = alloca i32, align 4
  %12 = alloca ptr, align 8
  %13 = alloca ptr, align 8
  %14 = alloca [1 x %struct.__va_list_tag], align 16
  store ptr %0, ptr %5, align 8
  store i32 %1, ptr %6, align 4
  store ptr %2, ptr %7, align 8
  store ptr %3, ptr %8, align 8
  call void @llvm.lifetime.start.p0(i64 4, ptr %9) #11
  call void @llvm.lifetime.start.p0(i64 4, ptr %10) #11
  call void @llvm.lifetime.start.p0(i64 4, ptr %11) #11
  call void @llvm.lifetime.start.p0(i64 8, ptr %12) #11
  call void @llvm.lifetime.start.p0(i64 8, ptr %13) #11
  call void @llvm.lifetime.start.p0(i64 24, ptr %14) #11
  %15 = getelementptr inbounds [1 x %struct.__va_list_tag], ptr %14, i64 0, i64 0
  call void @llvm.va_start.p0(ptr %15)
  %16 = call ptr @wmem_packet_scope()
  %17 = load ptr, ptr %8, align 8
  %18 = getelementptr inbounds [1 x %struct.__va_list_tag], ptr %14, i64 0, i64 0
  %19 = call noalias ptr @wmem_strdup_vprintf(ptr noundef %16, ptr noundef %17, ptr noundef %18)
  store ptr %19, ptr %13, align 8
  %20 = getelementptr inbounds [1 x %struct.__va_list_tag], ptr %14, i64 0, i64 0
  call void @llvm.va_end.p0(ptr %20)
  %21 = load ptr, ptr %5, align 8
  %22 = load i32, ptr %6, align 4
  %23 = call i32 @tvb_get_letohl(ptr noundef %21, i32 noundef %22)
  store i32 %23, ptr %9, align 4
  %24 = load i32, ptr %6, align 4
  %25 = add i32 %24, 4
  store i32 %25, ptr %6, align 4
  %26 = load ptr, ptr %7, align 8
  %27 = load ptr, ptr %5, align 8
  %28 = load i32, ptr %6, align 4
  %29 = load i32, ptr %9, align 4
  %30 = mul i32 %29, 4
  %31 = load i32, ptr @ett_mswsp_uin32_array, align 4
  %32 = load ptr, ptr %13, align 8
  %33 = call ptr @proto_tree_add_subtree(ptr noundef %26, ptr noundef %27, i32 noundef %28, i32 noundef %30, i32 noundef %31, ptr noundef %12, ptr noundef %32)
  %34 = load ptr, ptr %12, align 8
  %35 = load i32, ptr %9, align 4
  call void (ptr, ptr, ...) @proto_item_append_text(ptr noundef %34, ptr noundef @.str.1250, i32 noundef %35)
  store i32 0, ptr %11, align 4
  br label %36

36:                                               ; preds = %55, %4
  %37 = load i32, ptr %11, align 4
  %38 = load i32, ptr %9, align 4
  %39 = icmp ult i32 %37, %38
  br i1 %39, label %40, label %58

40:                                               ; preds = %36
  %41 = load ptr, ptr %5, align 8
  %42 = load i32, ptr %6, align 4
  %43 = call i32 @tvb_get_letohl(ptr noundef %41, i32 noundef %42)
  store i32 %43, ptr %10, align 4
  %44 = load i32, ptr %6, align 4
  %45 = add i32 %44, 4
  store i32 %45, ptr %6, align 4
  %46 = load i32, ptr %11, align 4
  %47 = icmp ugt i32 %46, 0
  br i1 %47, label %48, label %51

48:                                               ; preds = %40
  %49 = load ptr, ptr %12, align 8
  %50 = load i32, ptr %10, align 4
  call void (ptr, ptr, ...) @proto_item_append_text(ptr noundef %49, ptr noundef @.str.1251, i32 noundef %50)
  br label %54

51:                                               ; preds = %40
  %52 = load ptr, ptr %12, align 8
  %53 = load i32, ptr %10, align 4
  call void (ptr, ptr, ...) @proto_item_append_text(ptr noundef %52, ptr noundef @.str.1226, i32 noundef %53)
  br label %54

54:                                               ; preds = %51, %48
  br label %55

55:                                               ; preds = %54
  %56 = load i32, ptr %11, align 4
  %57 = add i32 %56, 1
  store i32 %57, ptr %11, align 4
  br label %36, !llvm.loop !20

58:                                               ; preds = %36
  %59 = load ptr, ptr %12, align 8
  call void (ptr, ptr, ...) @proto_item_append_text(ptr noundef %59, ptr noundef @.str.1252)
  %60 = load i32, ptr %6, align 4
  call void @llvm.lifetime.end.p0(i64 24, ptr %14) #11
  call void @llvm.lifetime.end.p0(i64 8, ptr %13) #11
  call void @llvm.lifetime.end.p0(i64 8, ptr %12) #11
  call void @llvm.lifetime.end.p0(i64 4, ptr %11) #11
  call void @llvm.lifetime.end.p0(i64 4, ptr %10) #11
  call void @llvm.lifetime.end.p0(i64 4, ptr %9) #11
  ret i32 %60
}