; Function Attrs: null_pointer_is_valid sspstrong uwtable
define internal noundef i32 @parse_CColumnSet(ptr noundef %0, i32 noundef %1, ptr noundef %2, ptr noundef %3, ...) unnamed_addr #0 {
  %5 = alloca ptr, align 8
  %6 = alloca [1 x %struct.__va_list_tag], align 16
  call void @llvm.lifetime.start.p0(i64 8, ptr nonnull %5) #11
  call void @llvm.lifetime.start.p0(i64 24, ptr nonnull %6) #11
  call void @llvm.va_start.p0(ptr nonnull %6)
  %7 = call ptr @wmem_packet_scope()
  %8 = call noalias ptr @wmem_strdup_vprintf(ptr noundef %7, ptr noundef %3, ptr noundef nonnull %6)
  call void @llvm.va_end.p0(ptr nonnull %6)
  %9 = call i32 @tvb_get_letohl(ptr noundef %0, i32 noundef %1)
  %10 = add i32 %1, 4
  %11 = shl i32 %9, 2
  %12 = load i32, ptr @ett_mswsp_uin32_array, align 4
  %13 = call ptr @proto_tree_add_subtree(ptr noundef %2, ptr noundef %0, i32 noundef %10, i32 noundef %11, i32 noundef %12, ptr noundef nonnull %5, ptr noundef %8)
  %14 = load ptr, ptr %5, align 8
  call void (ptr, ptr, ...) @proto_item_append_text(ptr noundef %14, ptr noundef nonnull @.str.1250, i32 noundef %9)
  %.not22 = icmp eq i32 %9, 0
  br i1 %.not22, label %._crit_edge, label %.lr.ph

.lr.ph:                                           ; preds = %4, %.lr.ph
  %.021 = phi i32 [ %16, %.lr.ph ], [ %10, %4 ]
  %.01920 = phi i32 [ %18, %.lr.ph ], [ 0, %4 ]
  %15 = call i32 @tvb_get_letohl(ptr noundef %0, i32 noundef %.021)
  %16 = add i32 %.021, 4
  %.not = icmp eq i32 %.01920, 0
  %17 = load ptr, ptr %5, align 8
  %.str.1226..str.1251 = select i1 %.not, ptr @.str.1226, ptr @.str.1251
  call void (ptr, ptr, ...) @proto_item_append_text(ptr noundef %17, ptr noundef nonnull %.str.1226..str.1251, i32 noundef %15)
  %18 = add nuw i32 %.01920, 1
  %exitcond.not = icmp eq i32 %18, %9
  br i1 %exitcond.not, label %._crit_edge, label %.lr.ph, !llvm.loop !21

._crit_edge:                                      ; preds = %.lr.ph, %4
  %.0.lcssa = phi i32 [ %10, %4 ], [ %16, %.lr.ph ]
  %19 = load ptr, ptr %5, align 8
  call void (ptr, ptr, ...) @proto_item_append_text(ptr noundef %19, ptr noundef nonnull @.str.1252)
  call void @llvm.lifetime.end.p0(i64 24, ptr nonnull %6) #11
  call void @llvm.lifetime.end.p0(i64 8, ptr nonnull %5) #11
  ret i32 %.0.lcssa
}